target datalayout = "e-m:e-p270:32:32-p271:32:32-p272:64:64-i64:64-i128:128-f80:128-n8:16:32:64-S128"
target triple = "x86_64-pc-linux-gnu"

%struct.AVFilterContext = type { ptr, ptr, ptr, ptr, ptr, i32, ptr, ptr, i32, ptr, ptr, i32, i32, ptr, ptr, ptr, ptr, i32, ptr, i32, i32 }
%struct.SignalstatsContext = type { ptr, i32, i32, i32, i32, i32, i32, i32, i32, i32, ptr, [4 x i8], [3 x i32], i32, ptr, i32, ptr, ptr, ptr, ptr, ptr, ptr }
%struct.ThreadDataHueSatMetrics = type { ptr, ptr, ptr }
%struct.AVChannelLayout = type { i32, i32, %union.anon.1, ptr }
%union.anon.1 = type { i64 }
%struct.AVRational = type { i32, i32 }
%struct.AVFrame = type { [8 x ptr], [8 x i32], ptr, i32, i32, i32, i32, i32, %struct.AVRational, i64, i64, %struct.AVRational, i32, ptr, i32, i32, [8 x ptr], ptr, i32, ptr, i32, i32, i32, i32, i32, i32, i32, i64, ptr, i32, ptr, ptr, i64, i64, i64, i64, ptr, %struct.AVChannelLayout, i64 }

; Function Attrs: nounwind uwtable
define internal i32 @compute_sat_hue_metrics8(ptr noundef %0, ptr noundef %1, i32 noundef %2, i32 noundef %3) #1 {
  %5 = alloca ptr, align 8
  %6 = alloca ptr, align 8
  %7 = alloca i32, align 4
  %8 = alloca i32, align 4
  %9 = alloca i32, align 4
  %10 = alloca i32, align 4
  %11 = alloca ptr, align 8
  %12 = alloca ptr, align 8
  %13 = alloca ptr, align 8
  %14 = alloca ptr, align 8
  %15 = alloca ptr, align 8
  %16 = alloca i32, align 4
  %17 = alloca i32, align 4
  %18 = alloca i32, align 4
  %19 = alloca i32, align 4
  %20 = alloca ptr, align 8
  %21 = alloca ptr, align 8
  %22 = alloca i32, align 4
  %23 = alloca i32, align 4
  %24 = alloca ptr, align 8
  %25 = alloca ptr, align 8
  %26 = alloca i32, align 4
  %27 = alloca i32, align 4
  store ptr %0, ptr %5, align 8, !tbaa !4
  store ptr %1, ptr %6, align 8, !tbaa !93
  store i32 %2, ptr %7, align 4, !tbaa !30
  store i32 %3, ptr %8, align 4, !tbaa !30
  call void @llvm.lifetime.start.p0(i64 4, ptr %9) #11
  call void @llvm.lifetime.start.p0(i64 4, ptr %10) #11
  call void @llvm.lifetime.start.p0(i64 8, ptr %11) #11
  %28 = load ptr, ptr %6, align 8, !tbaa !93
  store ptr %28, ptr %11, align 8, !tbaa !94
  call void @llvm.lifetime.start.p0(i64 8, ptr %12) #11
  %29 = load ptr, ptr %5, align 8, !tbaa !4
  %30 = getelementptr inbounds nuw %struct.AVFilterContext, ptr %29, i32 0, i32 9
  %31 = load ptr, ptr %30, align 8, !tbaa !9
  store ptr %31, ptr %12, align 8, !tbaa !22
  call void @llvm.lifetime.start.p0(i64 8, ptr %13) #11
  %32 = load ptr, ptr %11, align 8, !tbaa !94
  %33 = getelementptr inbounds nuw %struct.ThreadDataHueSatMetrics, ptr %32, i32 0, i32 0
  %34 = load ptr, ptr %33, align 8, !tbaa !55
  store ptr %34, ptr %13, align 8, !tbaa !33
  call void @llvm.lifetime.start.p0(i64 8, ptr %14) #11
  %35 = load ptr, ptr %11, align 8, !tbaa !94
  %36 = getelementptr inbounds nuw %struct.ThreadDataHueSatMetrics, ptr %35, i32 0, i32 1
  %37 = load ptr, ptr %36, align 8, !tbaa !57
  store ptr %37, ptr %14, align 8, !tbaa !33
  call void @llvm.lifetime.start.p0(i64 8, ptr %15) #11
  %38 = load ptr, ptr %11, align 8, !tbaa !94
  %39 = getelementptr inbounds nuw %struct.ThreadDataHueSatMetrics, ptr %38, i32 0, i32 2
  %40 = load ptr, ptr %39, align 8, !tbaa !58
  store ptr %40, ptr %15, align 8, !tbaa !33
  call void @llvm.lifetime.start.p0(i64 4, ptr %16) #11
  %41 = load ptr, ptr %12, align 8, !tbaa !22
  %42 = getelementptr inbounds nuw %struct.SignalstatsContext, ptr %41, i32 0, i32 1
  %43 = load i32, ptr %42, align 8, !tbaa !60
  %44 = load i32, ptr %7, align 4, !tbaa !30
  %45 = mul nsw i32 %43, %44
  %46 = load i32, ptr %8, align 4, !tbaa !30
  %47 = sdiv i32 %45, %46
  store i32 %47, ptr %16, align 4, !tbaa !30
  call void @llvm.lifetime.start.p0(i64 4, ptr %17) #11
  %48 = load ptr, ptr %12, align 8, !tbaa !22
  %49 = getelementptr inbounds nuw %struct.SignalstatsContext, ptr %48, i32 0, i32 1
  %50 = load i32, ptr %49, align 8, !tbaa !60
  %51 = load i32, ptr %7, align 4, !tbaa !30
  %52 = add nsw i32 %51, 1
  %53 = mul nsw i32 %50, %52
  %54 = load i32, ptr %8, align 4, !tbaa !30
  %55 = sdiv i32 %53, %54
  store i32 %55, ptr %17, align 4, !tbaa !30
  call void @llvm.lifetime.start.p0(i64 4, ptr %18) #11
  %56 = load ptr, ptr %13, align 8, !tbaa !33
  %57 = getelementptr inbounds nuw %struct.AVFrame, ptr %56, i32 0, i32 1
  %58 = getelementptr inbounds [8 x i32], ptr %57, i64 0, i64 1
  %59 = load i32, ptr %58, align 4, !tbaa !30
  store i32 %59, ptr %18, align 4, !tbaa !30
  call void @llvm.lifetime.start.p0(i64 4, ptr %19) #11
  %60 = load ptr, ptr %13, align 8, !tbaa !33
  %61 = getelementptr inbounds nuw %struct.AVFrame, ptr %60, i32 0, i32 1
  %62 = getelementptr inbounds [8 x i32], ptr %61, i64 0, i64 2
  %63 = load i32, ptr %62, align 8, !tbaa !30
  store i32 %63, ptr %19, align 4, !tbaa !30
  call void @llvm.lifetime.start.p0(i64 8, ptr %20) #11
  %64 = load ptr, ptr %13, align 8, !tbaa !33
  %65 = getelementptr inbounds nuw %struct.AVFrame, ptr %64, i32 0, i32 0
  %66 = getelementptr inbounds [8 x ptr], ptr %65, i64 0, i64 1
  %67 = load ptr, ptr %66, align 8, !tbaa !62
  %68 = load i32, ptr %16, align 4, !tbaa !30
  %69 = load i32, ptr %18, align 4, !tbaa !30
  %70 = mul nsw i32 %68, %69
  %71 = sext i32 %70 to i64
  %72 = getelementptr inbounds i8, ptr %67, i64 %71
  store ptr %72, ptr %20, align 8, !tbaa !62
  call void @llvm.lifetime.start.p0(i64 8, ptr %21) #11
  %73 = load ptr, ptr %13, align 8, !tbaa !33
  %74 = getelementptr inbounds nuw %struct.AVFrame, ptr %73, i32 0, i32 0
  %75 = getelementptr inbounds [8 x ptr], ptr %74, i64 0, i64 2
  %76 = load ptr, ptr %75, align 8, !tbaa !62
  %77 = load i32, ptr %16, align 4, !tbaa !30
  %78 = load i32, ptr %19, align 4, !tbaa !30
  %79 = mul nsw i32 %77, %78
  %80 = sext i32 %79 to i64
  %81 = getelementptr inbounds i8, ptr %76, i64 %80
  store ptr %81, ptr %21, align 8, !tbaa !62
  call void @llvm.lifetime.start.p0(i64 4, ptr %22) #11
  %82 = load ptr, ptr %14, align 8, !tbaa !33
  %83 = getelementptr inbounds nuw %struct.AVFrame, ptr %82, i32 0, i32 1
  %84 = getelementptr inbounds [8 x i32], ptr %83, i64 0, i64 0
  %85 = load i32, ptr %84, align 8, !tbaa !30
  store i32 %85, ptr %22, align 4, !tbaa !30
  call void @llvm.lifetime.start.p0(i64 4, ptr %23) #11
  %86 = load ptr, ptr %15, align 8, !tbaa !33
  %87 = getelementptr inbounds nuw %struct.AVFrame, ptr %86, i32 0, i32 1
  %88 = getelementptr inbounds [8 x i32], ptr %87, i64 0, i64 0
  %89 = load i32, ptr %88, align 8, !tbaa !30
  store i32 %89, ptr %23, align 4, !tbaa !30
  call void @llvm.lifetime.start.p0(i64 8, ptr %24) #11
  %90 = load ptr, ptr %14, align 8, !tbaa !33
  %91 = getelementptr inbounds nuw %struct.AVFrame, ptr %90, i32 0, i32 0
  %92 = getelementptr inbounds [8 x ptr], ptr %91, i64 0, i64 0
  %93 = load ptr, ptr %92, align 8, !tbaa !62
  %94 = load i32, ptr %16, align 4, !tbaa !30
  %95 = load i32, ptr %22, align 4, !tbaa !30
  %96 = mul nsw i32 %94, %95
  %97 = sext i32 %96 to i64
  %98 = getelementptr inbounds i8, ptr %93, i64 %97
  store ptr %98, ptr %24, align 8, !tbaa !62
  call void @llvm.lifetime.start.p0(i64 8, ptr %25) #11
  %99 = load ptr, ptr %15, align 8, !tbaa !33
  %100 = getelementptr inbounds nuw %struct.AVFrame, ptr %99, i32 0, i32 0
  %101 = getelementptr inbounds [8 x ptr], ptr %100, i64 0, i64 0
  %102 = load ptr, ptr %101, align 8, !tbaa !62
  %103 = load i32, ptr %16, align 4, !tbaa !30
  %104 = load i32, ptr %23, align 4, !tbaa !30
  %105 = mul nsw i32 %103, %104
  %106 = sext i32 %105 to i64
  %107 = getelementptr inbounds i8, ptr %102, i64 %106
  store ptr %107, ptr %25, align 8, !tbaa !62
  %108 = load i32, ptr %16, align 4, !tbaa !30
  store i32 %108, ptr %10, align 4, !tbaa !30
  br label %109

109:                                              ; preds = %182, %4
  %110 = load i32, ptr %10, align 4, !tbaa !30
  %111 = load i32, ptr %17, align 4, !tbaa !30
  %112 = icmp slt i32 %110, %111
  br i1 %112, label %113, label %185

113:                                              ; preds = %109
  store i32 0, ptr %9, align 4, !tbaa !30
  br label %114

114:                                              ; preds = %162, %113
  %115 = load i32, ptr %9, align 4, !tbaa !30
  %116 = load ptr, ptr %12, align 8, !tbaa !22
  %117 = getelementptr inbounds nuw %struct.SignalstatsContext, ptr %116, i32 0, i32 2
  %118 = load i32, ptr %117, align 4, !tbaa !70
  %119 = icmp slt i32 %115, %118
  br i1 %119, label %120, label %165

120:                                              ; preds = %114
  call void @llvm.lifetime.start.p0(i64 4, ptr %26) #11
  %121 = load ptr, ptr %20, align 8, !tbaa !62
  %122 = load i32, ptr %9, align 4, !tbaa !30
  %123 = sext i32 %122 to i64
  %124 = getelementptr inbounds i8, ptr %121, i64 %123
  %125 = load i8, ptr %124, align 1, !tbaa !29
  %126 = zext i8 %125 to i32
  store i32 %126, ptr %26, align 4, !tbaa !30
  call void @llvm.lifetime.start.p0(i64 4, ptr %27) #11
  %127 = load ptr, ptr %21, align 8, !tbaa !62
  %128 = load i32, ptr %9, align 4, !tbaa !30
  %129 = sext i32 %128 to i64
  %130 = getelementptr inbounds i8, ptr %127, i64 %129
  %131 = load i8, ptr %130, align 1, !tbaa !29
  %132 = zext i8 %131 to i32
  store i32 %132, ptr %27, align 4, !tbaa !30
  %133 = load i32, ptr %26, align 4, !tbaa !30
  %134 = sub nsw i32 %133, 128
  %135 = sitofp i32 %134 to float
  %136 = load i32, ptr %27, align 4, !tbaa !30
  %137 = sub nsw i32 %136, 128
  %138 = sitofp i32 %137 to float
  %139 = call nsz float @hypotf(float noundef %135, float noundef %138) #13
  %140 = fptoui float %139 to i8
  %141 = load ptr, ptr %24, align 8, !tbaa !62
  %142 = load i32, ptr %9, align 4, !tbaa !30
  %143 = sext i32 %142 to i64
  %144 = getelementptr inbounds i8, ptr %141, i64 %143
  store i8 %140, ptr %144, align 1, !tbaa !29
  %145 = load i32, ptr %26, align 4, !tbaa !30
  %146 = sub nsw i32 %145, 128
  %147 = sitofp i32 %146 to float
  %148 = load i32, ptr %27, align 4, !tbaa !30
  %149 = sub nsw i32 %148, 128
  %150 = sitofp i32 %149 to float
  %151 = call nsz float @llvm.atan2.f32(float %147, float %150)
  %152 = fpext nsz float %151 to double
  %153 = call nsz double @llvm.fmuladd.f64(double 0x404CA5DC1A63C1F8, double %152, double 1.800000e+02)
  %154 = fptrunc nsz double %153 to float
  %155 = call nsz float @llvm.floor.f32(float %154)
  %156 = frem nsz float %155, 3.600000e+02
  %157 = fptosi float %156 to i16
  %158 = load ptr, ptr %25, align 8, !tbaa !62
  %159 = load i32, ptr %9, align 4, !tbaa !30
  %160 = sext i32 %159 to i64
  %161 = getelementptr inbounds i16, ptr %158, i64 %160
  store i16 %157, ptr %161, align 2, !tbaa !50
  call void @llvm.lifetime.end.p0(i64 4, ptr %27) #11
  call void @llvm.lifetime.end.p0(i64 4, ptr %26) #11
  br label %162

162:                                              ; preds = %120
  %163 = load i32, ptr %9, align 4, !tbaa !30
  %164 = add nsw i32 %163, 1
  store i32 %164, ptr %9, align 4, !tbaa !30
  br label %114, !llvm.loop !98

165:                                              ; preds = %114
  %166 = load i32, ptr %18, align 4, !tbaa !30
  %167 = load ptr, ptr %20, align 8, !tbaa !62
  %168 = sext i32 %166 to i64
  %169 = getelementptr inbounds i8, ptr %167, i64 %168
  store ptr %169, ptr %20, align 8, !tbaa !62
  %170 = load i32, ptr %19, align 4, !tbaa !30
  %171 = load ptr, ptr %21, align 8, !tbaa !62
  %172 = sext i32 %170 to i64
  %173 = getelementptr inbounds i8, ptr %171, i64 %172
  store ptr %173, ptr %21, align 8, !tbaa !62
  %174 = load i32, ptr %22, align 4, !tbaa !30
  %175 = load ptr, ptr %24, align 8, !tbaa !62
  %176 = sext i32 %174 to i64
  %177 = getelementptr inbounds i8, ptr %175, i64 %176
  store ptr %177, ptr %24, align 8, !tbaa !62
  %178 = load i32, ptr %23, align 4, !tbaa !30
  %179 = load ptr, ptr %25, align 8, !tbaa !62
  %180 = sext i32 %178 to i64
  %181 = getelementptr inbounds i8, ptr %179, i64 %180
  store ptr %181, ptr %25, align 8, !tbaa !62
  br label %182

182:                                              ; preds = %165
  %183 = load i32, ptr %10, align 4, !tbaa !30
  %184 = add nsw i32 %183, 1
  store i32 %184, ptr %10, align 4, !tbaa !30
  br label %109, !llvm.loop !99

185:                                              ; preds = %109
  call void @llvm.lifetime.end.p0(i64 8, ptr %25) #11
  call void @llvm.lifetime.end.p0(i64 8, ptr %24) #11
  call void @llvm.lifetime.end.p0(i64 4, ptr %23) #11
  call void @llvm.lifetime.end.p0(i64 4, ptr %22) #11
  call void @llvm.lifetime.end.p0(i64 8, ptr %21) #11
  call void @llvm.lifetime.end.p0(i64 8, ptr %20) #11
  call void @llvm.lifetime.end.p0(i64 4, ptr %19) #11
  call void @llvm.lifetime.end.p0(i64 4, ptr %18) #11
  call void @llvm.lifetime.end.p0(i64 4, ptr %17) #11
  call void @llvm.lifetime.end.p0(i64 4, ptr %16) #11
  call void @llvm.lifetime.end.p0(i64 8, ptr %15) #11
  call void @llvm.lifetime.end.p0(i64 8, ptr %14) #11
  call void @llvm.lifetime.end.p0(i64 8, ptr %13) #11
  call void @llvm.lifetime.end.p0(i64 8, ptr %12) #11
  call void @llvm.lifetime.end.p0(i64 8, ptr %11) #11
  call void @llvm.lifetime.end.p0(i64 4, ptr %10) #11
  call void @llvm.lifetime.end.p0(i64 4, ptr %9) #11
  ret i32 0
}