; Function Attrs: nofree norecurse nosync nounwind memory(readwrite, inaccessiblemem: none) uwtable
define internal noundef i32 @compute_sat_hue_metrics8(ptr noundef readonly captures(none) %0, ptr noundef readonly captures(none) %1, i32 noundef %2, i32 noundef %3) #6 {
  %5 = getelementptr inbounds nuw i8, ptr %0, i64 72
  %6 = load ptr, ptr %5, align 8, !tbaa !4
  %7 = getelementptr inbounds nuw i8, ptr %6, i64 8
  %8 = load i32, ptr %7, align 8, !tbaa !52
  %9 = mul nsw i32 %8, %2
  %10 = sdiv i32 %9, %3
  %11 = add nsw i32 %2, 1
  %12 = mul nsw i32 %8, %11
  %13 = sdiv i32 %12, %3
  %14 = icmp slt i32 %10, %13
  br i1 %14, label %.preheader.lr.ph, label %._crit_edge64

.preheader.lr.ph:                                 ; preds = %4
  %15 = getelementptr inbounds nuw i8, ptr %1, i64 16
  %16 = load ptr, ptr %15, align 8, !tbaa !50
  %17 = getelementptr inbounds nuw i8, ptr %16, i64 64
  %18 = load i32, ptr %17, align 8, !tbaa !26
  %19 = getelementptr inbounds nuw i8, ptr %1, i64 8
  %20 = load ptr, ptr %19, align 8, !tbaa !49
  %21 = getelementptr inbounds nuw i8, ptr %20, i64 64
  %22 = load i32, ptr %21, align 8, !tbaa !26
  %23 = load ptr, ptr %1, align 8, !tbaa !47
  %24 = getelementptr inbounds nuw i8, ptr %23, i64 72
  %25 = load i32, ptr %24, align 8, !tbaa !26
  %26 = getelementptr inbounds nuw i8, ptr %23, i64 68
  %27 = load i32, ptr %26, align 4, !tbaa !26
  %28 = getelementptr inbounds nuw i8, ptr %6, i64 12
  %29 = sext i32 %27 to i64
  %30 = sext i32 %25 to i64
  %31 = sext i32 %22 to i64
  %32 = sext i32 %18 to i64
  %33 = load i32, ptr %28, align 4, !tbaa !57
  %34 = icmp sgt i32 %33, 0
  br i1 %34, label %.preheader.preheader, label %._crit_edge64

.preheader.preheader:                             ; preds = %.preheader.lr.ph
  %35 = getelementptr inbounds nuw i8, ptr %23, i64 8
  %36 = load ptr, ptr %35, align 8, !tbaa !54
  %37 = mul nsw i32 %27, %10
  %38 = sext i32 %37 to i64
  %39 = getelementptr inbounds i8, ptr %36, i64 %38
  %40 = getelementptr inbounds nuw i8, ptr %23, i64 16
  %41 = load ptr, ptr %40, align 8, !tbaa !54
  %42 = mul nsw i32 %25, %10
  %43 = sext i32 %42 to i64
  %44 = getelementptr inbounds i8, ptr %41, i64 %43
  %45 = load ptr, ptr %20, align 8, !tbaa !54
  %46 = mul nsw i32 %22, %10
  %47 = sext i32 %46 to i64
  %48 = getelementptr inbounds i8, ptr %45, i64 %47
  %49 = load ptr, ptr %16, align 8, !tbaa !54
  %50 = mul nsw i32 %18, %10
  %51 = sext i32 %50 to i64
  %52 = getelementptr inbounds i8, ptr %49, i64 %51
  br label %.preheader

.preheader:                                       ; preds = %.preheader.preheader, %._crit_edge
  %53 = phi i32 [ %79, %._crit_edge ], [ %33, %.preheader.preheader ]
  %.05363 = phi i32 [ %84, %._crit_edge ], [ %10, %.preheader.preheader ]
  %.05462 = phi ptr [ %83, %._crit_edge ], [ %52, %.preheader.preheader ]
  %.05561 = phi ptr [ %82, %._crit_edge ], [ %48, %.preheader.preheader ]
  %.05660 = phi ptr [ %80, %._crit_edge ], [ %39, %.preheader.preheader ]
  %.05759 = phi ptr [ %81, %._crit_edge ], [ %44, %.preheader.preheader ]
  %54 = icmp sgt i32 %53, 0
  br i1 %54, label %.lr.ph, label %._crit_edge

.lr.ph:                                           ; preds = %.preheader, %.lr.ph
  %indvars.iv = phi i64 [ %indvars.iv.next, %.lr.ph ], [ 0, %.preheader ]
  %55 = getelementptr inbounds nuw i8, ptr %.05660, i64 %indvars.iv
  %56 = load i8, ptr %55, align 1, !tbaa !25
  %57 = zext i8 %56 to i32
  %58 = getelementptr inbounds nuw i8, ptr %.05759, i64 %indvars.iv
  %59 = load i8, ptr %58, align 1, !tbaa !25
  %60 = zext i8 %59 to i32
  %61 = add nsw i32 %57, -128
  %62 = sitofp i32 %61 to float
  %63 = add nsw i32 %60, -128
  %64 = sitofp i32 %63 to float
  %65 = tail call nsz float @hypotf(float noundef %62, float noundef %64) #14
  %66 = fptoui float %65 to i8
  %67 = getelementptr inbounds nuw i8, ptr %.05561, i64 %indvars.iv
  store i8 %66, ptr %67, align 1, !tbaa !25
  %68 = tail call nsz float @llvm.atan2.f32(float %62, float %64)
  %69 = fpext nsz float %68 to double
  %70 = tail call nsz double @llvm.fmuladd.f64(double %69, double 0x404CA5DC1A63C1F8, double 1.800000e+02)
  %71 = fptrunc nsz double %70 to float
  %72 = tail call nsz float @llvm.floor.f32(float %71)
  %73 = frem nsz float %72, 3.600000e+02
  %74 = fptosi float %73 to i16
  %75 = getelementptr inbounds nuw i16, ptr %.05462, i64 %indvars.iv
  store i16 %74, ptr %75, align 2, !tbaa !62
  %indvars.iv.next = add nuw nsw i64 %indvars.iv, 1
  %76 = load i32, ptr %28, align 4, !tbaa !57
  %77 = sext i32 %76 to i64
  %78 = icmp slt i64 %indvars.iv.next, %77
  br i1 %78, label %.lr.ph, label %._crit_edge, !llvm.loop !87

._crit_edge:                                      ; preds = %.lr.ph, %.preheader
  %79 = phi i32 [ %53, %.preheader ], [ %76, %.lr.ph ]
  %80 = getelementptr inbounds i8, ptr %.05660, i64 %29
  %81 = getelementptr inbounds i8, ptr %.05759, i64 %30
  %82 = getelementptr inbounds i8, ptr %.05561, i64 %31
  %83 = getelementptr inbounds i8, ptr %.05462, i64 %32
  %84 = add nsw i32 %.05363, 1
  %exitcond.not = icmp eq i32 %84, %13
  br i1 %exitcond.not, label %._crit_edge64, label %.preheader, !llvm.loop !88

._crit_edge64:                                    ; preds = %._crit_edge, %.preheader.lr.ph, %4
  ret i32 0
}